target datalayout = "e-m:e-p270:32:32-p271:32:32-p272:64:64-i64:64-i128:128-f80:128-n8:16:32:64-S128"
target triple = "x86_64-pc-linux-gnu"

@.str.75 = private unnamed_addr constant [4 x i8] c"buf\00", align 1
@.str.76 = private unnamed_addr constant [4 x i8] c"not\00", align 1
@.str.147 = private unnamed_addr constant [4 x i8] c"and\00", align 1
@.str.148 = private unnamed_addr constant [5 x i8] c"nand\00", align 1
@.str.149 = private unnamed_addr constant [3 x i8] c"or\00", align 1
@.str.150 = private unnamed_addr constant [4 x i8] c"nor\00", align 1
@.str.151 = private unnamed_addr constant [4 x i8] c"xor\00", align 1
@.str.152 = private unnamed_addr constant [5 x i8] c"xnor\00", align 1
@.str.154 = private unnamed_addr constant [4 x i8] c"_DC\00", align 1
@.str.157 = private unnamed_addr constant [7 x i8] c"const0\00", align 1
@.str.158 = private unnamed_addr constant [7 x i8] c"const1\00", align 1
@.str.159 = private unnamed_addr constant [7 x i8] c"constX\00", align 1
@.str.160 = private unnamed_addr constant [4 x i8] c"mux\00", align 1

; Function Attrs: nounwind uwtable
define internal ptr @Acb_Oper2Name(i32 noundef %0) #0 {
  %2 = alloca ptr, align 8
  %3 = alloca i32, align 4
  store i32 %0, ptr %3, align 4
  %4 = load i32, ptr %3, align 4
  %5 = icmp eq i32 %4, 7
  br i1 %5, label %6, label %7

6:                                                ; preds = %1
  store ptr @.str.157, ptr %2, align 8
  br label %56

7:                                                ; preds = %1
  %8 = load i32, ptr %3, align 4
  %9 = icmp eq i32 %8, 8
  br i1 %9, label %10, label %11

10:                                               ; preds = %7
  store ptr @.str.158, ptr %2, align 8
  br label %56

11:                                               ; preds = %7
  %12 = load i32, ptr %3, align 4
  %13 = icmp eq i32 %12, 9
  br i1 %13, label %14, label %15

14:                                               ; preds = %11
  store ptr @.str.159, ptr %2, align 8
  br label %56

15:                                               ; preds = %11
  %16 = load i32, ptr %3, align 4
  %17 = icmp eq i32 %16, 11
  br i1 %17, label %18, label %19

18:                                               ; preds = %15
  store ptr @.str.75, ptr %2, align 8
  br label %56

19:                                               ; preds = %15
  %20 = load i32, ptr %3, align 4
  %21 = icmp eq i32 %20, 12
  br i1 %21, label %22, label %23

22:                                               ; preds = %19
  store ptr @.str.76, ptr %2, align 8
  br label %56

23:                                               ; preds = %19
  %24 = load i32, ptr %3, align 4
  %25 = icmp eq i32 %24, 13
  br i1 %25, label %26, label %27

26:                                               ; preds = %23
  store ptr @.str.147, ptr %2, align 8
  br label %56

27:                                               ; preds = %23
  %28 = load i32, ptr %3, align 4
  %29 = icmp eq i32 %28, 14
  br i1 %29, label %30, label %31

30:                                               ; preds = %27
  store ptr @.str.148, ptr %2, align 8
  br label %56

31:                                               ; preds = %27
  %32 = load i32, ptr %3, align 4
  %33 = icmp eq i32 %32, 15
  br i1 %33, label %34, label %35

34:                                               ; preds = %31
  store ptr @.str.149, ptr %2, align 8
  br label %56

35:                                               ; preds = %31
  %36 = load i32, ptr %3, align 4
  %37 = icmp eq i32 %36, 16
  br i1 %37, label %38, label %39

38:                                               ; preds = %35
  store ptr @.str.150, ptr %2, align 8
  br label %56

39:                                               ; preds = %35
  %40 = load i32, ptr %3, align 4
  %41 = icmp eq i32 %40, 17
  br i1 %41, label %42, label %43

42:                                               ; preds = %39
  store ptr @.str.151, ptr %2, align 8
  br label %56

43:                                               ; preds = %39
  %44 = load i32, ptr %3, align 4
  %45 = icmp eq i32 %44, 18
  br i1 %45, label %46, label %47

46:                                               ; preds = %43
  store ptr @.str.152, ptr %2, align 8
  br label %56

47:                                               ; preds = %43
  %48 = load i32, ptr %3, align 4
  %49 = icmp eq i32 %48, 21
  br i1 %49, label %50, label %51

50:                                               ; preds = %47
  store ptr @.str.160, ptr %2, align 8
  br label %56

51:                                               ; preds = %47
  %52 = load i32, ptr %3, align 4
  %53 = icmp eq i32 %52, 78
  br i1 %53, label %54, label %55

54:                                               ; preds = %51
  store ptr @.str.154, ptr %2, align 8
  br label %56

55:                                               ; preds = %51
  store ptr null, ptr %2, align 8
  br label %56

56:                                               ; preds = %55, %54, %50, %46, %42, %38, %34, %30, %26, %22, %18, %14, %10, %6
  %57 = load ptr, ptr %2, align 8
  ret ptr %57
}