; Function Attrs: mustprogress nofree norecurse nosync nounwind willreturn memory(none) uwtable
define internal fastcc noundef ptr @Acb_Oper2Name(i32 noundef %0) unnamed_addr #10 {
  switch i32 %0, label %14 [
    i32 7, label %15
    i32 8, label %2
    i32 9, label %3
    i32 11, label %4
    i32 12, label %5
    i32 13, label %6
    i32 14, label %7
    i32 15, label %8
    i32 16, label %9
    i32 17, label %10
    i32 18, label %11
    i32 21, label %12
    i32 78, label %13
  ]

2:                                                ; preds = %1
  br label %15

3:                                                ; preds = %1
  br label %15

4:                                                ; preds = %1
  br label %15

5:                                                ; preds = %1
  br label %15

6:                                                ; preds = %1
  br label %15

7:                                                ; preds = %1
  br label %15

8:                                                ; preds = %1
  br label %15

9:                                                ; preds = %1
  br label %15

10:                                               ; preds = %1
  br label %15

11:                                               ; preds = %1
  br label %15

12:                                               ; preds = %1
  br label %15

13:                                               ; preds = %1
  br label %15

14:                                               ; preds = %1
  br label %15

15:                                               ; preds = %1, %14, %13, %12, %11, %10, %9, %8, %7, %6, %5, %4, %3, %2
  %.0 = phi ptr [ @.str.158, %2 ], [ @.str.159, %3 ], [ @.str.75, %4 ], [ @.str.76, %5 ], [ @.str.147, %6 ], [ @.str.148, %7 ], [ @.str.149, %8 ], [ @.str.150, %9 ], [ @.str.151, %10 ], [ @.str.152, %11 ], [ @.str.160, %12 ], [ @.str.154, %13 ], [ null, %14 ], [ @.str.157, %1 ]
  ret ptr %.0
}